; Function Attrs: mustprogress uwtable
define hidden void @_ZN13defined_names4impl10push_scopeEv(ptr noundef nonnull align 8 dereferenceable(128) %0) local_unnamed_addr #3 align 2 {
  %2 = getelementptr inbounds nuw i8, ptr %0, i64 120
  %3 = getelementptr inbounds nuw i8, ptr %0, i64 80
  %4 = load ptr, ptr %3, align 8, !tbaa !20
  %5 = icmp eq ptr %4, null
  br i1 %5, label %_ZNK15ref_vector_coreI4expr19ref_manager_wrapperIS0_11ast_managerEE4sizeEv.exit, label %6

6:                                                ; preds = %1
  %7 = getelementptr inbounds i8, ptr %4, i64 -4
  %8 = load i32, ptr %7, align 4, !tbaa !30
  br label %_ZNK15ref_vector_coreI4expr19ref_manager_wrapperIS0_11ast_managerEE4sizeEv.exit

_ZNK15ref_vector_coreI4expr19ref_manager_wrapperIS0_11ast_managerEE4sizeEv.exit: ; preds = %1, %6
  %.0.i.i = phi i32 [ %8, %6 ], [ 0, %1 ]
  %9 = load ptr, ptr %2, align 8, !tbaa !24
  %10 = icmp eq ptr %9, null
  br i1 %10, label %17, label %11

11:                                               ; preds = %_ZNK15ref_vector_coreI4expr19ref_manager_wrapperIS0_11ast_managerEE4sizeEv.exit
  %12 = getelementptr inbounds i8, ptr %9, i64 -4
  %13 = load i32, ptr %12, align 4, !tbaa !30
  %14 = getelementptr inbounds i8, ptr %9, i64 -8
  %15 = load i32, ptr %14, align 4, !tbaa !30
  %16 = icmp eq i32 %13, %15
  br i1 %16, label %17, label %_ZN6vectorIjLb0EjE9push_backEOj.exit

17:                                               ; preds = %11, %_ZNK15ref_vector_coreI4expr19ref_manager_wrapperIS0_11ast_managerEE4sizeEv.exit
  tail call void @_ZN6vectorIjLb0EjE13expand_vectorEv(ptr noundef nonnull align 8 dereferenceable(8) %2)
  %.pre.i = load ptr, ptr %2, align 8, !tbaa !24
  %.phi.trans.insert.i = getelementptr inbounds i8, ptr %.pre.i, i64 -4
  %.pre2.i = load i32, ptr %.phi.trans.insert.i, align 4, !tbaa !30
  br label %_ZN6vectorIjLb0EjE9push_backEOj.exit

_ZN6vectorIjLb0EjE9push_backEOj.exit:             ; preds = %11, %17
  %18 = phi i32 [ %.pre2.i, %17 ], [ %13, %11 ]
  %19 = phi ptr [ %.pre.i, %17 ], [ %9, %11 ]
  %20 = getelementptr inbounds i8, ptr %19, i64 -4
  %21 = zext i32 %18 to i64
  %22 = getelementptr inbounds nuw i32, ptr %19, i64 %21
  store i32 %.0.i.i, ptr %22, align 4, !tbaa !30
  %23 = add i32 %18, 1
  store i32 %23, ptr %20, align 4, !tbaa !30
  ret void
}